target datalayout = "e-m:e-p270:32:32-p271:32:32-p272:64:64-i64:64-i128:128-f80:128-n8:16:32:64-S128"
target triple = "x86_64-pc-linux-gnu"

@.str.1 = private unnamed_addr constant [12 x i8] c"namespace.c\00", align 1
@.str.20 = private unnamed_addr constant [53 x i8] c"cannot move objects into or out of temporary schemas\00", align 1
@__func__.CheckSetNamespace = private unnamed_addr constant [18 x i8] c"CheckSetNamespace\00", align 1
@.str.21 = private unnamed_addr constant [48 x i8] c"cannot move objects into or out of TOAST schema\00", align 1
@.str.25 = private unnamed_addr constant [9 x i8] c"pg_temp_\00", align 1
@.str.26 = private unnamed_addr constant [15 x i8] c"pg_toast_temp_\00", align 1

; Function Attrs: nounwind uwtable
define dso_local zeroext i1 @isAnyTempNamespace(i32 noundef %0) #0 {
  %2 = alloca i1, align 1
  %3 = alloca i32, align 4
  %4 = alloca i8, align 1
  %5 = alloca ptr, align 8
  %6 = alloca i32, align 4
  store i32 %0, ptr %3, align 4
  call void @llvm.lifetime.start.p0(i64 1, ptr %4) #14
  call void @llvm.lifetime.start.p0(i64 8, ptr %5) #14
  %7 = load i32, ptr %3, align 4
  %8 = call ptr @get_namespace_name(i32 noundef %7)
  store ptr %8, ptr %5, align 8
  %9 = load ptr, ptr %5, align 8
  %10 = icmp ne ptr %9, null
  br i1 %10, label %12, label %11

11:                                               ; preds = %1
  store i1 false, ptr %2, align 1
  store i32 1, ptr %6, align 4
  br label %26

12:                                               ; preds = %1
  %13 = load ptr, ptr %5, align 8
  %14 = call i32 @strncmp(ptr noundef %13, ptr noundef @.str.25, i64 noundef 8) #15
  %15 = icmp eq i32 %14, 0
  br i1 %15, label %20, label %16

16:                                               ; preds = %12
  %17 = load ptr, ptr %5, align 8
  %18 = call i32 @strncmp(ptr noundef %17, ptr noundef @.str.26, i64 noundef 14) #15
  %19 = icmp eq i32 %18, 0
  br label %20

20:                                               ; preds = %16, %12
  %21 = phi i1 [ true, %12 ], [ %19, %16 ]
  %22 = zext i1 %21 to i8
  store i8 %22, ptr %4, align 1
  %23 = load ptr, ptr %5, align 8
  call void @pfree(ptr noundef %23)
  %24 = load i8, ptr %4, align 1, !range !4, !noundef !5
  %25 = trunc i8 %24 to i1
  store i1 %25, ptr %2, align 1
  store i32 1, ptr %6, align 4
  br label %26

26:                                               ; preds = %20, %11
  call void @llvm.lifetime.end.p0(i64 8, ptr %5) #14
  call void @llvm.lifetime.end.p0(i64 1, ptr %4) #14
  %27 = load i1, ptr %2, align 1
  ret i1 %27
}

; Function Attrs: nounwind uwtable
define dso_local void @CheckSetNamespace(i32 noundef %0, i32 noundef %1) #0 {
  %3 = alloca i32, align 4
  %4 = alloca i32, align 4
  store i32 %0, ptr %3, align 4
  store i32 %1, ptr %4, align 4
  %5 = load i32, ptr %4, align 4
  %6 = call zeroext i1 @isAnyTempNamespace(i32 noundef %5)
  br i1 %6, label %10, label %7

7:                                                ; preds = %2
  %8 = load i32, ptr %3, align 4
  %9 = call zeroext i1 @isAnyTempNamespace(i32 noundef %8)
  br i1 %9, label %10, label %21

10:                                               ; preds = %7, %2
  br label %11

11:                                               ; preds = %10
  br i1 true, label %12, label %14

12:                                               ; preds = %11
  %13 = call zeroext i1 @errstart_cold(i32 noundef 21, ptr noundef null) #16
  br i1 %13, label %16, label %19

14:                                               ; preds = %11
  %15 = call zeroext i1 @errstart(i32 noundef 21, ptr noundef null)
  br i1 %15, label %16, label %19

16:                                               ; preds = %14, %12
  %17 = call i32 @errcode(i32 noundef 1088)
  %18 = call i32 (ptr, ...) @errmsg(ptr noundef @.str.20)
  call void @errfinish(ptr noundef @.str.1, i32 noundef 3465, ptr noundef @__func__.CheckSetNamespace)
  br label %19

19:                                               ; preds = %16, %14, %12
  unreachable

20:                                               ; No predecessors!
  br label %21

21:                                               ; preds = %20, %7
  %22 = load i32, ptr %4, align 4
  %23 = icmp eq i32 %22, 99
  br i1 %23, label %27, label %24

24:                                               ; preds = %21
  %25 = load i32, ptr %3, align 4
  %26 = icmp eq i32 %25, 99
  br i1 %26, label %27, label %38

27:                                               ; preds = %24, %21
  br label %28

28:                                               ; preds = %27
  br i1 true, label %29, label %31

29:                                               ; preds = %28
  %30 = call zeroext i1 @errstart_cold(i32 noundef 21, ptr noundef null) #16
  br i1 %30, label %33, label %36

31:                                               ; preds = %28
  %32 = call zeroext i1 @errstart(i32 noundef 21, ptr noundef null)
  br i1 %32, label %33, label %36

33:                                               ; preds = %31, %29
  %34 = call i32 @errcode(i32 noundef 1088)
  %35 = call i32 (ptr, ...) @errmsg(ptr noundef @.str.21)
  call void @errfinish(ptr noundef @.str.1, i32 noundef 3471, ptr noundef @__func__.CheckSetNamespace)
  br label %36

36:                                               ; preds = %33, %31, %29
  unreachable

37:                                               ; No predecessors!
  br label %38

38:                                               ; preds = %37, %24
  ret void
}