; Function Attrs: nounwind uwtable
define dso_local void @CheckSetNamespace(i32 noundef %0, i32 noundef %1) local_unnamed_addr #0 {
  %3 = tail call ptr @get_namespace_name(i32 noundef %1) #19
  %.not.i = icmp eq ptr %3, null
  br i1 %.not.i, label %isAnyTempNamespace.exit.thread, label %4

4:                                                ; preds = %2
  %5 = tail call i32 @strncmp(ptr noundef nonnull dereferenceable(1) %3, ptr noundef nonnull dereferenceable(9) @.str.25, i64 noundef 8) #20
  %6 = icmp eq i32 %5, 0
  br i1 %6, label %.sink.split, label %isAnyTempNamespace.exit

isAnyTempNamespace.exit:                          ; preds = %4
  %7 = tail call i32 @strncmp(ptr noundef nonnull dereferenceable(1) %3, ptr noundef nonnull dereferenceable(15) @.str.26, i64 noundef 14) #20
  %8 = icmp eq i32 %7, 0
  tail call void @pfree(ptr noundef nonnull %3) #19
  br i1 %8, label %15, label %isAnyTempNamespace.exit.thread

isAnyTempNamespace.exit.thread:                   ; preds = %2, %isAnyTempNamespace.exit
  %9 = tail call ptr @get_namespace_name(i32 noundef %0) #19
  %.not.i5 = icmp eq ptr %9, null
  br i1 %.not.i5, label %isAnyTempNamespace.exit7.thread, label %10

10:                                               ; preds = %isAnyTempNamespace.exit.thread
  %11 = tail call i32 @strncmp(ptr noundef nonnull dereferenceable(1) %9, ptr noundef nonnull dereferenceable(9) @.str.25, i64 noundef 8) #20
  %12 = icmp eq i32 %11, 0
  br i1 %12, label %.sink.split, label %isAnyTempNamespace.exit7

isAnyTempNamespace.exit7:                         ; preds = %10
  %13 = tail call i32 @strncmp(ptr noundef nonnull dereferenceable(1) %9, ptr noundef nonnull dereferenceable(15) @.str.26, i64 noundef 14) #20
  %14 = icmp eq i32 %13, 0
  tail call void @pfree(ptr noundef nonnull %9) #19
  br i1 %14, label %15, label %isAnyTempNamespace.exit7.thread

.sink.split:                                      ; preds = %10, %4
  %.sink = phi ptr [ %3, %4 ], [ %9, %10 ]
  tail call void @pfree(ptr noundef nonnull %.sink) #19
  br label %15

15:                                               ; preds = %.sink.split, %isAnyTempNamespace.exit7, %isAnyTempNamespace.exit
  %16 = tail call zeroext i1 @errstart_cold(i32 noundef 21, ptr noundef null) #21
  tail call void @llvm.assume(i1 %16)
  %17 = tail call i32 @errcode(i32 noundef 1088) #19
  %18 = tail call i32 (ptr, ...) @errmsg(ptr noundef nonnull @.str.20) #19
  tail call void @errfinish(ptr noundef nonnull @.str.1, i32 noundef 3465, ptr noundef nonnull @__func__.CheckSetNamespace) #19
  unreachable

isAnyTempNamespace.exit7.thread:                  ; preds = %isAnyTempNamespace.exit.thread, %isAnyTempNamespace.exit7
  %19 = icmp eq i32 %1, 99
  %20 = icmp eq i32 %0, 99
  %or.cond = or i1 %20, %19
  br i1 %or.cond, label %21, label %25

21:                                               ; preds = %isAnyTempNamespace.exit7.thread
  %22 = tail call zeroext i1 @errstart_cold(i32 noundef 21, ptr noundef null) #21
  tail call void @llvm.assume(i1 %22)
  %23 = tail call i32 @errcode(i32 noundef 1088) #19
  %24 = tail call i32 (ptr, ...) @errmsg(ptr noundef nonnull @.str.21) #19
  tail call void @errfinish(ptr noundef nonnull @.str.1, i32 noundef 3471, ptr noundef nonnull @__func__.CheckSetNamespace) #19
  unreachable

25:                                               ; preds = %isAnyTempNamespace.exit7.thread
  ret void
}